target datalayout = "e-m:e-p270:32:32-p271:32:32-p272:64:64-i64:64-i128:128-f80:128-n8:16:32:64-S128"
target triple = "x86_64-pc-linux-gnu"

%struct._zval_struct = type { %union._zend_value, %union.anon, %union.anon.2 }
%union._zend_value = type { i64 }
%union.anon = type { i32 }
%union.anon.2 = type { i32 }
%struct.php_stream_sqlite3_data = type { ptr, i64, i64, i32 }
%struct._php_stream = type { ptr, ptr, %struct._php_stream_filter_chain, %struct._php_stream_filter_chain, ptr, ptr, %struct._zval_struct, i16, [16 x i8], i32, ptr, ptr, ptr, ptr, i64, ptr, i64, i64, i64, i64, ptr }
%struct._php_stream_filter_chain = type { ptr, ptr, ptr }

; Function Attrs: nounwind uwtable
define internal i64 @php_sqlite3_stream_read(ptr noundef %0, ptr noundef %1, i64 noundef %2) #0 {
  %4 = alloca i64, align 8
  %5 = alloca ptr, align 8
  %6 = alloca ptr, align 8
  %7 = alloca i64, align 8
  %8 = alloca ptr, align 8
  %9 = alloca i32, align 4
  store ptr %0, ptr %5, align 8, !tbaa !135
  store ptr %1, ptr %6, align 8, !tbaa !62
  store i64 %2, ptr %7, align 8, !tbaa !11
  call void @llvm.lifetime.start.p0(i64 8, ptr %8) #15
  %10 = load ptr, ptr %5, align 8, !tbaa !135
  %11 = getelementptr inbounds nuw %struct._php_stream, ptr %10, i32 0, i32 1
  %12 = load ptr, ptr %11, align 8, !tbaa !213
  store ptr %12, ptr %8, align 8, !tbaa !70
  %13 = load ptr, ptr %8, align 8, !tbaa !70
  %14 = getelementptr inbounds nuw %struct.php_stream_sqlite3_data, ptr %13, i32 0, i32 1
  %15 = load i64, ptr %14, align 8, !tbaa !133
  %16 = load i64, ptr %7, align 8, !tbaa !11
  %17 = add i64 %15, %16
  %18 = load ptr, ptr %8, align 8, !tbaa !70
  %19 = getelementptr inbounds nuw %struct.php_stream_sqlite3_data, ptr %18, i32 0, i32 2
  %20 = load i64, ptr %19, align 8, !tbaa !134
  %21 = icmp uge i64 %17, %20
  br i1 %21, label %22, label %35

22:                                               ; preds = %3
  %23 = load ptr, ptr %8, align 8, !tbaa !70
  %24 = getelementptr inbounds nuw %struct.php_stream_sqlite3_data, ptr %23, i32 0, i32 2
  %25 = load i64, ptr %24, align 8, !tbaa !134
  %26 = load ptr, ptr %8, align 8, !tbaa !70
  %27 = getelementptr inbounds nuw %struct.php_stream_sqlite3_data, ptr %26, i32 0, i32 1
  %28 = load i64, ptr %27, align 8, !tbaa !133
  %29 = sub i64 %25, %28
  store i64 %29, ptr %7, align 8, !tbaa !11
  %30 = load ptr, ptr %5, align 8, !tbaa !135
  %31 = getelementptr inbounds nuw %struct._php_stream, ptr %30, i32 0, i32 7
  %32 = load i16, ptr %31, align 8
  %33 = and i16 %32, -9
  %34 = or i16 %33, 8
  store i16 %34, ptr %31, align 8
  br label %35

35:                                               ; preds = %22, %3
  %36 = load i64, ptr %7, align 8, !tbaa !11
  %37 = icmp ne i64 %36, 0
  br i1 %37, label %38, label %58

38:                                               ; preds = %35
  %39 = load ptr, ptr %8, align 8, !tbaa !70
  %40 = getelementptr inbounds nuw %struct.php_stream_sqlite3_data, ptr %39, i32 0, i32 0
  %41 = load ptr, ptr %40, align 8, !tbaa !130
  %42 = load ptr, ptr %6, align 8, !tbaa !62
  %43 = load i64, ptr %7, align 8, !tbaa !11
  %44 = trunc i64 %43 to i32
  %45 = load ptr, ptr %8, align 8, !tbaa !70
  %46 = getelementptr inbounds nuw %struct.php_stream_sqlite3_data, ptr %45, i32 0, i32 1
  %47 = load i64, ptr %46, align 8, !tbaa !133
  %48 = trunc i64 %47 to i32
  %49 = call i32 @sqlite3_blob_read(ptr noundef %41, ptr noundef %42, i32 noundef %44, i32 noundef %48)
  %50 = icmp ne i32 %49, 0
  br i1 %50, label %51, label %52

51:                                               ; preds = %38
  store i64 -1, ptr %4, align 8
  store i32 1, ptr %9, align 4
  br label %60

52:                                               ; preds = %38
  %53 = load i64, ptr %7, align 8, !tbaa !11
  %54 = load ptr, ptr %8, align 8, !tbaa !70
  %55 = getelementptr inbounds nuw %struct.php_stream_sqlite3_data, ptr %54, i32 0, i32 1
  %56 = load i64, ptr %55, align 8, !tbaa !133
  %57 = add i64 %56, %53
  store i64 %57, ptr %55, align 8, !tbaa !133
  br label %58

58:                                               ; preds = %52, %35
  %59 = load i64, ptr %7, align 8, !tbaa !11
  store i64 %59, ptr %4, align 8
  store i32 1, ptr %9, align 4
  br label %60

60:                                               ; preds = %58, %51
  call void @llvm.lifetime.end.p0(i64 8, ptr %8) #15
  %61 = load i64, ptr %4, align 8
  ret i64 %61
}